target datalayout = "e-m:e-p270:32:32-p271:32:32-p272:64:64-i64:64-i128:128-f80:128-n8:16:32:64-S128"
target triple = "x86_64-pc-linux-gnu"

%struct.lemon = type { ptr, ptr, ptr, i32, i32, i32, i32, i32, i32, i32, i32, i32, i32, i32, i32, ptr, i32, ptr, ptr, ptr, ptr, ptr, ptr, ptr, ptr, ptr, ptr, ptr, ptr, ptr, ptr, ptr, ptr, ptr, ptr, ptr, ptr, i32, i32, i32, i32, i32, i32, i32, i32, ptr }
%struct.config = type { ptr, i32, ptr, ptr, ptr, ptr, i32, ptr, ptr }
%struct.state = type { ptr, ptr, i32, ptr, i32, i32, i32, i32, i32, ptr, i32 }
%struct.plink = type { ptr, ptr }

@freelist = internal global ptr null, align 8
@current = internal global ptr null, align 8
@currentend = internal global ptr null, align 8
@basis = internal global ptr null, align 8
@basisend = internal global ptr null, align 8
@plink_freelist = internal global ptr null, align 8

; Function Attrs: nounwind null_pointer_is_valid sspstrong uwtable
define hidden void @deleteconfig(ptr noundef %0) #2 {
  %2 = alloca ptr, align 8
  store ptr %0, ptr %2, align 8
  %3 = load ptr, ptr @freelist, align 8
  %4 = load ptr, ptr %2, align 8
  %5 = getelementptr inbounds nuw %struct.config, ptr %4, i32 0, i32 7
  store ptr %3, ptr %5, align 8
  %6 = load ptr, ptr %2, align 8
  store ptr %6, ptr @freelist, align 8
  ret void
}

; Function Attrs: nounwind null_pointer_is_valid sspstrong uwtable
define hidden void @SetFree(ptr noundef %0) #2 {
  %2 = alloca ptr, align 8
  store ptr %0, ptr %2, align 8
  %3 = load ptr, ptr %2, align 8
  call void @free(ptr noundef %3) #18
  ret void
}

; Function Attrs: null_pointer_is_valid sspstrong uwtable
define hidden ptr @State_new() #0 {
  %1 = alloca ptr, align 8
  call void @llvm.lifetime.start.p0(i64 8, ptr %1) #18
  %2 = call noalias ptr @calloc(i64 noundef 1, i64 noundef 72) #19
  store ptr %2, ptr %1, align 8
  %3 = load ptr, ptr %1, align 8
  %4 = icmp eq ptr %3, null
  br i1 %4, label %5, label %6

5:                                                ; preds = %0
  call void @memory_error()
  br label %6

6:                                                ; preds = %5, %0
  %7 = load ptr, ptr %1, align 8
  call void @llvm.lifetime.end.p0(i64 8, ptr %1) #18
  ret ptr %7
}

; Function Attrs: null_pointer_is_valid sspstrong uwtable
define hidden void @Configlist_eat(ptr noundef %0) #0 {
  %2 = alloca ptr, align 8
  %3 = alloca ptr, align 8
  store ptr %0, ptr %2, align 8
  call void @llvm.lifetime.start.p0(i64 8, ptr %3) #18
  br label %4

4:                                                ; preds = %21, %1
  %5 = load ptr, ptr %2, align 8
  %6 = icmp ne ptr %5, null
  br i1 %6, label %7, label %23

7:                                                ; preds = %4
  %8 = load ptr, ptr %2, align 8
  %9 = getelementptr inbounds nuw %struct.config, ptr %8, i32 0, i32 7
  %10 = load ptr, ptr %9, align 8
  store ptr %10, ptr %3, align 8
  %11 = load ptr, ptr %2, align 8
  %12 = getelementptr inbounds nuw %struct.config, ptr %11, i32 0, i32 2
  %13 = load ptr, ptr %12, align 8
  %14 = icmp ne ptr %13, null
  br i1 %14, label %15, label %19

15:                                               ; preds = %7
  %16 = load ptr, ptr %2, align 8
  %17 = getelementptr inbounds nuw %struct.config, ptr %16, i32 0, i32 2
  %18 = load ptr, ptr %17, align 8
  call void @SetFree(ptr noundef %18)
  br label %19

19:                                               ; preds = %15, %7
  %20 = load ptr, ptr %2, align 8
  call void @deleteconfig(ptr noundef %20)
  br label %21

21:                                               ; preds = %19
  %22 = load ptr, ptr %3, align 8
  store ptr %22, ptr %2, align 8
  br label %4, !llvm.loop !39

23:                                               ; preds = %4
  call void @llvm.lifetime.end.p0(i64 8, ptr %3) #18
  ret void
}

; Function Attrs: nounwind null_pointer_is_valid sspstrong uwtable
define hidden ptr @Configlist_return() #2 {
  %1 = alloca ptr, align 8
  call void @llvm.lifetime.start.p0(i64 8, ptr %1) #18
  %2 = load ptr, ptr @current, align 8
  store ptr %2, ptr %1, align 8
  store ptr null, ptr @current, align 8
  store ptr null, ptr @currentend, align 8
  %3 = load ptr, ptr %1, align 8
  call void @llvm.lifetime.end.p0(i64 8, ptr %1) #18
  ret ptr %3
}

; Function Attrs: nounwind null_pointer_is_valid sspstrong uwtable
define hidden void @Plink_delete(ptr noundef %0) #2 {
  %2 = alloca ptr, align 8
  %3 = alloca ptr, align 8
  store ptr %0, ptr %2, align 8
  call void @llvm.lifetime.start.p0(i64 8, ptr %3) #18
  br label %4

4:                                                ; preds = %7, %1
  %5 = load ptr, ptr %2, align 8
  %6 = icmp ne ptr %5, null
  br i1 %6, label %7, label %16

7:                                                ; preds = %4
  %8 = load ptr, ptr %2, align 8
  %9 = getelementptr inbounds nuw %struct.plink, ptr %8, i32 0, i32 1
  %10 = load ptr, ptr %9, align 8
  store ptr %10, ptr %3, align 8
  %11 = load ptr, ptr @plink_freelist, align 8
  %12 = load ptr, ptr %2, align 8
  %13 = getelementptr inbounds nuw %struct.plink, ptr %12, i32 0, i32 1
  store ptr %11, ptr %13, align 8
  %14 = load ptr, ptr %2, align 8
  store ptr %14, ptr @plink_freelist, align 8
  %15 = load ptr, ptr %3, align 8
  store ptr %15, ptr %2, align 8
  br label %4, !llvm.loop !38

16:                                               ; preds = %4
  call void @llvm.lifetime.end.p0(i64 8, ptr %3) #18
  ret void
}

; Function Attrs: nounwind null_pointer_is_valid sspstrong uwtable
define hidden void @Plink_copy(ptr noundef %0, ptr noundef %1) #2 {
  %3 = alloca ptr, align 8
  %4 = alloca ptr, align 8
  %5 = alloca ptr, align 8
  store ptr %0, ptr %3, align 8
  store ptr %1, ptr %4, align 8
  call void @llvm.lifetime.start.p0(i64 8, ptr %5) #18
  br label %6

6:                                                ; preds = %9, %2
  %7 = load ptr, ptr %4, align 8
  %8 = icmp ne ptr %7, null
  br i1 %8, label %9, label %20

9:                                                ; preds = %6
  %10 = load ptr, ptr %4, align 8
  %11 = getelementptr inbounds nuw %struct.plink, ptr %10, i32 0, i32 1
  %12 = load ptr, ptr %11, align 8
  store ptr %12, ptr %5, align 8
  %13 = load ptr, ptr %3, align 8
  %14 = load ptr, ptr %13, align 8
  %15 = load ptr, ptr %4, align 8
  %16 = getelementptr inbounds nuw %struct.plink, ptr %15, i32 0, i32 1
  store ptr %14, ptr %16, align 8
  %17 = load ptr, ptr %4, align 8
  %18 = load ptr, ptr %3, align 8
  store ptr %17, ptr %18, align 8
  %19 = load ptr, ptr %5, align 8
  store ptr %19, ptr %4, align 8
  br label %6, !llvm.loop !37

20:                                               ; preds = %6
  call void @llvm.lifetime.end.p0(i64 8, ptr %5) #18
  ret void
}

; Function Attrs: nounwind null_pointer_is_valid sspstrong uwtable
define hidden ptr @Configlist_basis() #2 {
  %1 = alloca ptr, align 8
  call void @llvm.lifetime.start.p0(i64 8, ptr %1) #18
  %2 = load ptr, ptr @basis, align 8
  store ptr %2, ptr %1, align 8
  store ptr null, ptr @basis, align 8
  store ptr null, ptr @basisend, align 8
  %3 = load ptr, ptr %1, align 8
  call void @llvm.lifetime.end.p0(i64 8, ptr %1) #18
  ret ptr %3
}

; Function Attrs: null_pointer_is_valid sspstrong uwtable
define hidden ptr @getstate(ptr noundef %0) #0 {
  %2 = alloca ptr, align 8
  %3 = alloca ptr, align 8
  %4 = alloca ptr, align 8
  %5 = alloca ptr, align 8
  %6 = alloca ptr, align 8
  %7 = alloca ptr, align 8
  store ptr %0, ptr %2, align 8
  call void @llvm.lifetime.start.p0(i64 8, ptr %3) #18
  call void @llvm.lifetime.start.p0(i64 8, ptr %4) #18
  call void @llvm.lifetime.start.p0(i64 8, ptr %5) #18
  call void @Configlist_sortbasis()
  %8 = call ptr @Configlist_basis()
  store ptr %8, ptr %4, align 8
  %9 = load ptr, ptr %4, align 8
  %10 = call ptr @State_find(ptr noundef %9)
  store ptr %10, ptr %5, align 8
  %11 = load ptr, ptr %5, align 8
  %12 = icmp ne ptr %11, null
  br i1 %12, label %13, label %49

13:                                               ; preds = %1
  call void @llvm.lifetime.start.p0(i64 8, ptr %6) #18
  call void @llvm.lifetime.start.p0(i64 8, ptr %7) #18
  %14 = load ptr, ptr %4, align 8
  store ptr %14, ptr %6, align 8
  %15 = load ptr, ptr %5, align 8
  %16 = getelementptr inbounds nuw %struct.state, ptr %15, i32 0, i32 0
  %17 = load ptr, ptr %16, align 8
  store ptr %17, ptr %7, align 8
  br label %18

18:                                               ; preds = %39, %13
  %19 = load ptr, ptr %6, align 8
  %20 = icmp ne ptr %19, null
  br i1 %20, label %21, label %24

21:                                               ; preds = %18
  %22 = load ptr, ptr %7, align 8
  %23 = icmp ne ptr %22, null
  br label %24

24:                                               ; preds = %21, %18
  %25 = phi i1 [ false, %18 ], [ %23, %21 ]
  br i1 %25, label %26, label %46

26:                                               ; preds = %24
  %27 = load ptr, ptr %7, align 8
  %28 = getelementptr inbounds nuw %struct.config, ptr %27, i32 0, i32 4
  %29 = load ptr, ptr %6, align 8
  %30 = getelementptr inbounds nuw %struct.config, ptr %29, i32 0, i32 4
  %31 = load ptr, ptr %30, align 8
  call void @Plink_copy(ptr noundef %28, ptr noundef %31)
  %32 = load ptr, ptr %6, align 8
  %33 = getelementptr inbounds nuw %struct.config, ptr %32, i32 0, i32 3
  %34 = load ptr, ptr %33, align 8
  call void @Plink_delete(ptr noundef %34)
  %35 = load ptr, ptr %6, align 8
  %36 = getelementptr inbounds nuw %struct.config, ptr %35, i32 0, i32 4
  store ptr null, ptr %36, align 8
  %37 = load ptr, ptr %6, align 8
  %38 = getelementptr inbounds nuw %struct.config, ptr %37, i32 0, i32 3
  store ptr null, ptr %38, align 8
  br label %39

39:                                               ; preds = %26
  %40 = load ptr, ptr %6, align 8
  %41 = getelementptr inbounds nuw %struct.config, ptr %40, i32 0, i32 8
  %42 = load ptr, ptr %41, align 8
  store ptr %42, ptr %6, align 8
  %43 = load ptr, ptr %7, align 8
  %44 = getelementptr inbounds nuw %struct.config, ptr %43, i32 0, i32 8
  %45 = load ptr, ptr %44, align 8
  store ptr %45, ptr %7, align 8
  br label %18, !llvm.loop !35

46:                                               ; preds = %24
  %47 = call ptr @Configlist_return()
  store ptr %47, ptr %3, align 8
  %48 = load ptr, ptr %3, align 8
  call void @Configlist_eat(ptr noundef %48)
  call void @llvm.lifetime.end.p0(i64 8, ptr %7) #18
  call void @llvm.lifetime.end.p0(i64 8, ptr %6) #18
  br label %78

49:                                               ; preds = %1
  %50 = load ptr, ptr %2, align 8
  call void @Configlist_closure(ptr noundef %50)
  call void @Configlist_sort()
  %51 = call ptr @Configlist_return()
  store ptr %51, ptr %3, align 8
  %52 = call ptr @State_new()
  store ptr %52, ptr %5, align 8
  %53 = load ptr, ptr %5, align 8
  %54 = icmp eq ptr %53, null
  br i1 %54, label %55, label %56

55:                                               ; preds = %49
  call void @memory_error()
  br label %56

56:                                               ; preds = %55, %49
  %57 = load ptr, ptr %4, align 8
  %58 = load ptr, ptr %5, align 8
  %59 = getelementptr inbounds nuw %struct.state, ptr %58, i32 0, i32 0
  store ptr %57, ptr %59, align 8
  %60 = load ptr, ptr %3, align 8
  %61 = load ptr, ptr %5, align 8
  %62 = getelementptr inbounds nuw %struct.state, ptr %61, i32 0, i32 1
  store ptr %60, ptr %62, align 8
  %63 = load ptr, ptr %2, align 8
  %64 = getelementptr inbounds nuw %struct.lemon, ptr %63, i32 0, i32 3
  %65 = load i32, ptr %64, align 8
  %66 = add i32 %65, 1
  store i32 %66, ptr %64, align 8
  %67 = load ptr, ptr %5, align 8
  %68 = getelementptr inbounds nuw %struct.state, ptr %67, i32 0, i32 2
  store i32 %65, ptr %68, align 8
  %69 = load ptr, ptr %5, align 8
  %70 = getelementptr inbounds nuw %struct.state, ptr %69, i32 0, i32 3
  store ptr null, ptr %70, align 8
  %71 = load ptr, ptr %5, align 8
  %72 = load ptr, ptr %5, align 8
  %73 = getelementptr inbounds nuw %struct.state, ptr %72, i32 0, i32 0
  %74 = load ptr, ptr %73, align 8
  %75 = call i32 @State_insert(ptr noundef %71, ptr noundef %74)
  %76 = load ptr, ptr %2, align 8
  %77 = load ptr, ptr %5, align 8
  call void @buildshifts(ptr noundef %76, ptr noundef %77)
  br label %78

78:                                               ; preds = %56, %46
  %79 = load ptr, ptr %5, align 8
  call void @llvm.lifetime.end.p0(i64 8, ptr %5) #18
  call void @llvm.lifetime.end.p0(i64 8, ptr %4) #18
  call void @llvm.lifetime.end.p0(i64 8, ptr %3) #18
  ret ptr %79
}