; Function Attrs: null_pointer_is_valid sspstrong uwtable
define hidden ptr @getstate(ptr noundef captures(none) %0) local_unnamed_addr #0 {
  tail call void @Configlist_sortbasis()
  %2 = load ptr, ptr @basis, align 8
  store ptr null, ptr @basis, align 8
  store ptr null, ptr @basisend, align 8
  %3 = tail call ptr @State_find(ptr noundef %2)
  %.not = icmp eq ptr %3, null
  br i1 %.not, label %30, label %.preheader

.preheader:                                       ; preds = %1
  %.042 = load ptr, ptr %3, align 8
  %4 = icmp ne ptr %2, null
  %5 = icmp ne ptr %.042, null
  %6 = select i1 %4, i1 %5, i1 false
  br i1 %6, label %.lr.ph.preheader, label %._crit_edge

.lr.ph.preheader:                                 ; preds = %.preheader
  %plink_freelist.promoted = load ptr, ptr @plink_freelist, align 8
  br label %.lr.ph

.lr.ph:                                           ; preds = %.lr.ph.preheader, %Plink_delete.exit
  %.045 = phi ptr [ %.0, %Plink_delete.exit ], [ %.042, %.lr.ph.preheader ]
  %.02844 = phi ptr [ %18, %Plink_delete.exit ], [ %2, %.lr.ph.preheader ]
  %.08.i33.lcssa4143 = phi ptr [ %.08.i33.lcssa40, %Plink_delete.exit ], [ %plink_freelist.promoted, %.lr.ph.preheader ]
  %7 = getelementptr inbounds nuw i8, ptr %.045, i64 32
  %8 = getelementptr inbounds nuw i8, ptr %.02844, i64 32
  %9 = load ptr, ptr %8, align 8
  %.not7.i = icmp eq ptr %9, null
  br i1 %.not7.i, label %Plink_copy.exit, label %.lr.ph.preheader.i

.lr.ph.preheader.i:                               ; preds = %.lr.ph
  %.pre.i = load ptr, ptr %7, align 8
  br label %.lr.ph.i

.lr.ph.i:                                         ; preds = %.lr.ph.i, %.lr.ph.preheader.i
  %10 = phi ptr [ %.08.i, %.lr.ph.i ], [ %.pre.i, %.lr.ph.preheader.i ]
  %.08.i = phi ptr [ %12, %.lr.ph.i ], [ %9, %.lr.ph.preheader.i ]
  %11 = getelementptr inbounds nuw i8, ptr %.08.i, i64 8
  %12 = load ptr, ptr %11, align 8
  store ptr %10, ptr %11, align 8
  store ptr %.08.i, ptr %7, align 8
  %.not.i = icmp eq ptr %12, null
  br i1 %.not.i, label %Plink_copy.exit, label %.lr.ph.i, !llvm.loop !39

Plink_copy.exit:                                  ; preds = %.lr.ph.i, %.lr.ph
  %13 = getelementptr inbounds nuw i8, ptr %.02844, i64 24
  %14 = load ptr, ptr %13, align 8
  %.not6.i = icmp eq ptr %14, null
  br i1 %.not6.i, label %Plink_delete.exit, label %.lr.ph.i32

.lr.ph.i32:                                       ; preds = %Plink_copy.exit, %.lr.ph.i32
  %.08.i33 = phi ptr [ %16, %.lr.ph.i32 ], [ %14, %Plink_copy.exit ]
  %.057.i = phi ptr [ %.08.i33, %.lr.ph.i32 ], [ %.08.i33.lcssa4143, %Plink_copy.exit ]
  %15 = getelementptr inbounds nuw i8, ptr %.08.i33, i64 8
  %16 = load ptr, ptr %15, align 8
  store ptr %.057.i, ptr %15, align 8
  %.not.i34 = icmp eq ptr %16, null
  br i1 %.not.i34, label %._crit_edge.i, label %.lr.ph.i32, !llvm.loop !40

._crit_edge.i:                                    ; preds = %.lr.ph.i32
  store ptr %.08.i33, ptr @plink_freelist, align 8
  br label %Plink_delete.exit

Plink_delete.exit:                                ; preds = %Plink_copy.exit, %._crit_edge.i
  %.08.i33.lcssa40 = phi ptr [ %.08.i33.lcssa4143, %Plink_copy.exit ], [ %.08.i33, %._crit_edge.i ]
  %17 = getelementptr inbounds nuw i8, ptr %.02844, i64 64
  tail call void @llvm.memset.p0.i64(ptr noundef nonnull align 8 dereferenceable(16) %13, i8 0, i64 16, i1 false)
  %18 = load ptr, ptr %17, align 8
  %19 = getelementptr inbounds nuw i8, ptr %.045, i64 64
  %.0 = load ptr, ptr %19, align 8
  %20 = icmp ne ptr %18, null
  %21 = icmp ne ptr %.0, null
  %22 = select i1 %20, i1 %21, i1 false
  br i1 %22, label %.lr.ph, label %._crit_edge, !llvm.loop !41

._crit_edge:                                      ; preds = %Plink_delete.exit, %.preheader
  %23 = load ptr, ptr @current, align 8
  store ptr null, ptr @current, align 8
  store ptr null, ptr @currentend, align 8
  %.not9.i = icmp eq ptr %23, null
  br i1 %.not9.i, label %Configlist_eat.exit, label %.lr.ph.preheader.i35

.lr.ph.preheader.i35:                             ; preds = %._crit_edge
  %freelist.promoted.i = load ptr, ptr @freelist, align 8
  br label %.lr.ph.i36

.lr.ph.i36:                                       ; preds = %29, %.lr.ph.preheader.i35
  %.011.i = phi ptr [ %25, %29 ], [ %23, %.lr.ph.preheader.i35 ]
  %.0810.i = phi ptr [ %.011.i, %29 ], [ %freelist.promoted.i, %.lr.ph.preheader.i35 ]
  %24 = getelementptr inbounds nuw i8, ptr %.011.i, i64 56
  %25 = load ptr, ptr %24, align 8
  %26 = getelementptr inbounds nuw i8, ptr %.011.i, i64 16
  %27 = load ptr, ptr %26, align 8
  %.not7.i37 = icmp eq ptr %27, null
  br i1 %.not7.i37, label %29, label %28

28:                                               ; preds = %.lr.ph.i36
  tail call void @free(ptr noundef nonnull %27) #42
  br label %29

29:                                               ; preds = %28, %.lr.ph.i36
  store ptr %.0810.i, ptr %24, align 8
  %.not.i38 = icmp eq ptr %25, null
  br i1 %.not.i38, label %._crit_edge.i39, label %.lr.ph.i36, !llvm.loop !42

._crit_edge.i39:                                  ; preds = %29
  store ptr %.011.i, ptr @freelist, align 8
  br label %Configlist_eat.exit

30:                                               ; preds = %1
  tail call void @Configlist_closure(ptr noundef %0)
  tail call void @Configlist_sort()
  %31 = load ptr, ptr @current, align 8
  store ptr null, ptr @current, align 8
  store ptr null, ptr @currentend, align 8
  %32 = tail call noalias dereferenceable_or_null(72) ptr @calloc(i64 noundef 1, i64 noundef 72) #40
  %33 = icmp eq ptr %32, null
  br i1 %33, label %34, label %State_new.exit

34:                                               ; preds = %30
  tail call void @memory_error()
  unreachable

State_new.exit:                                   ; preds = %30
  store ptr %2, ptr %32, align 8
  %35 = getelementptr inbounds nuw i8, ptr %32, i64 8
  store ptr %31, ptr %35, align 8
  %36 = getelementptr inbounds nuw i8, ptr %0, i64 24
  %37 = load i32, ptr %36, align 8
  %38 = add i32 %37, 1
  store i32 %38, ptr %36, align 8
  %39 = getelementptr inbounds nuw i8, ptr %32, i64 16
  store i32 %37, ptr %39, align 8
  %40 = tail call i32 @State_insert(ptr noundef nonnull %32, ptr noundef %2)
  tail call void @buildshifts(ptr noundef %0, ptr noundef nonnull %32)
  br label %Configlist_eat.exit

Configlist_eat.exit:                              ; preds = %._crit_edge.i39, %._crit_edge, %State_new.exit
  %.029 = phi ptr [ %32, %State_new.exit ], [ %3, %._crit_edge ], [ %3, %._crit_edge.i39 ]
  ret ptr %.029
}